target datalayout = "e-m:e-p270:32:32-p271:32:32-p272:64:64-i64:64-i128:128-f80:128-n8:16:32:64-S128"
target triple = "x86_64-pc-linux-gnu"

%struct.Qureg = type { i32, i32, i32, i64, i64, i32, i32, %struct.ComplexArray, %struct.ComplexArray, %struct.ComplexArray, ptr, ptr, ptr, ptr, ptr, ptr }
%struct.ComplexArray = type { ptr, ptr }

@__func__.controlledRotateY = private unnamed_addr constant [18 x i8] c"controlledRotateY\00", align 1

; Function Attrs: nounwind uwtable
define void @controlledRotateY(ptr noundef byval(%struct.Qureg) align 8 %0, i32 noundef %1, i32 noundef %2, double noundef %3) #0 {
  %5 = alloca i32, align 4
  %6 = alloca i32, align 4
  %7 = alloca double, align 8
  %8 = alloca i32, align 4
  store i32 %1, ptr %5, align 4, !tbaa !4
  store i32 %2, ptr %6, align 4, !tbaa !4
  store double %3, ptr %7, align 8, !tbaa !25
  %9 = load i32, ptr %5, align 4, !tbaa !4
  %10 = load i32, ptr %6, align 4, !tbaa !4
  call void @validateControlTarget(ptr noundef byval(%struct.Qureg) align 8 %0, i32 noundef %9, i32 noundef %10, ptr noundef @__func__.controlledRotateY)
  %11 = load i32, ptr %5, align 4, !tbaa !4
  %12 = load i32, ptr %6, align 4, !tbaa !4
  %13 = load double, ptr %7, align 8, !tbaa !25
  call void @statevec_controlledRotateY(ptr noundef byval(%struct.Qureg) align 8 %0, i32 noundef %11, i32 noundef %12, double noundef %13)
  %14 = getelementptr inbounds nuw %struct.Qureg, ptr %0, i32 0, i32 0
  %15 = load i32, ptr %14, align 8, !tbaa !13
  %16 = icmp ne i32 %15, 0
  br i1 %16, label %17, label %27

17:                                               ; preds = %4
  call void @llvm.lifetime.start.p0(i64 4, ptr %8) #7
  %18 = getelementptr inbounds nuw %struct.Qureg, ptr %0, i32 0, i32 1
  %19 = load i32, ptr %18, align 4, !tbaa !18
  store i32 %19, ptr %8, align 4, !tbaa !4
  %20 = load i32, ptr %5, align 4, !tbaa !4
  %21 = load i32, ptr %8, align 4, !tbaa !4
  %22 = add nsw i32 %20, %21
  %23 = load i32, ptr %6, align 4, !tbaa !4
  %24 = load i32, ptr %8, align 4, !tbaa !4
  %25 = add nsw i32 %23, %24
  %26 = load double, ptr %7, align 8, !tbaa !25
  call void @statevec_controlledRotateY(ptr noundef byval(%struct.Qureg) align 8 %0, i32 noundef %22, i32 noundef %25, double noundef %26)
  call void @llvm.lifetime.end.p0(i64 4, ptr %8) #7
  br label %27

27:                                               ; preds = %17, %4
  %28 = load i32, ptr %5, align 4, !tbaa !4
  %29 = load i32, ptr %6, align 4, !tbaa !4
  %30 = load double, ptr %7, align 8, !tbaa !25
  call void @qasm_recordControlledParamGate(ptr noundef byval(%struct.Qureg) align 8 %0, i32 noundef 7, i32 noundef %28, i32 noundef %29, double noundef %30)
  ret void
}